Contents of the .eh_frame section:


00000000 0000000000000014 00000000 CIE "zR" cf=1 df=-8 ra=16
   LOC           CFA      ra    
0000000000000000 rsp+8    c-8   

00000018 0000000000000010 0000001c FDE cie=00000000 pc=0000000000401100..0000000000401126
   LOC           CFA      ra    
0000000000401100 rsp+8    u     
0000000000401104 rsp+8    u     

0000002c 0000000000000010 00000030 FDE cie=00000000 pc=0000000000401130..0000000000401135

00000040 0000000000000024 00000044 FDE cie=00000000 pc=0000000000401020..00000000004010b0
   LOC           CFA      ra    
0000000000401020 rsp+16   c-8   
0000000000401026 rsp+24   c-8   
0000000000401030 exp      c-8   

00000068 000000000000001c 0000006c FDE cie=00000000 pc=00000000004010b0..00000000004010e8
   LOC           CFA      rbp   ra    
00000000004010b0 rsp+8    u     c-8   
00000000004010b1 rsp+16   c-16  c-8   
00000000004010b4 rbp+16   c-16  c-8   
00000000004010e7 rsp+8    c-16  c-8   

00000088 000000000000001c 0000008c FDE cie=00000000 pc=00000000004011f0..0000000000401243
   LOC           CFA      rbp   ra    
00000000004011f0 rsp+8    u     c-8   
00000000004011f1 rsp+16   c-16  c-8   
00000000004011f4 rbp+16   c-16  c-8   
0000000000401242 rsp+8    c-16  c-8   

000000a8 000000000000001c 000000ac FDE cie=00000000 pc=0000000000401250..000000000040125b
   LOC           CFA      rbp   ra    
0000000000401250 rsp+8    u     c-8   
0000000000401251 rsp+16   c-16  c-8   
0000000000401254 rbp+16   c-16  c-8   
000000000040125a rsp+8    c-16  c-8   

000000c8 000000000000001c 000000cc FDE cie=00000000 pc=0000000000401260..000000000040126b
   LOC           CFA      rbp   ra    
0000000000401260 rsp+8    u     c-8   
0000000000401261 rsp+16   c-16  c-8   
0000000000401264 rbp+16   c-16  c-8   
000000000040126a rsp+8    c-16  c-8   

000000e8 000000000000001c 000000ec FDE cie=00000000 pc=0000000000401270..000000000040127b
   LOC           CFA      rbp   ra    
0000000000401270 rsp+8    u     c-8   
0000000000401271 rsp+16   c-16  c-8   
0000000000401274 rbp+16   c-16  c-8   
000000000040127a rsp+8    c-16  c-8   

00000108 000000000000001c 0000010c FDE cie=00000000 pc=0000000000401280..000000000040128b
   LOC           CFA      rbp   ra    
0000000000401280 rsp+8    u     c-8   
0000000000401281 rsp+16   c-16  c-8   
0000000000401284 rbp+16   c-16  c-8   
000000000040128a rsp+8    c-16  c-8   

00000128 000000000000001c 0000012c FDE cie=00000000 pc=0000000000401290..000000000040129b
   LOC           CFA      rbp   ra    
0000000000401290 rsp+8    u     c-8   
0000000000401291 rsp+16   c-16  c-8   
0000000000401294 rbp+16   c-16  c-8   
000000000040129a rsp+8    c-16  c-8   

00000148 000000000000001c 0000014c FDE cie=00000000 pc=00000000004012a0..00000000004012ab
   LOC           CFA      rbp   ra    
00000000004012a0 rsp+8    u     c-8   
00000000004012a1 rsp+16   c-16  c-8   
00000000004012a4 rbp+16   c-16  c-8   
00000000004012aa rsp+8    c-16  c-8   

00000168 0000000000000018 0000016c FDE cie=00000000 pc=00000000004012b0..0000000000401324
   LOC           CFA      rbp   ra    
00000000004012b0 rsp+8    u     c-8   
00000000004012b1 rsp+16   c-16  c-8   
00000000004012b4 rbp+16   c-16  c-8   

00000184 000000000000001c 00000188 FDE cie=00000000 pc=00000000004010f0..00000000004010fb
   LOC           CFA      rbp   ra    
00000000004010f0 rsp+8    u     c-8   
00000000004010f1 rsp+16   c-16  c-8   
00000000004010f4 rbp+16   c-16  c-8   
00000000004010fa rsp+8    c-16  c-8   

000001a4 ZERO terminator


